target datalayout = "e-m:e-p270:32:32-p271:32:32-p272:64:64-i64:64-i128:128-f80:128-n8:16:32:64-S128"
target triple = "x86_64-pc-linux-gnu"

%"class.o3dgc::Adaptive_Data_Model" = type <{ ptr, ptr, ptr, i32, i32, i32, i32, i32, i32, i32, [4 x i8] }>

; Function Attrs: mustprogress nounwind uwtable
define hidden void @_ZN5o3dgc19Adaptive_Data_Model6updateEb(ptr noundef nonnull align 8 dereferenceable(52) %0, i1 noundef zeroext %1) #3 align 2 {
  %3 = alloca ptr, align 8
  %4 = alloca i8, align 1
  %5 = alloca i32, align 4
  %6 = alloca i32, align 4
  %7 = alloca i32, align 4
  %8 = alloca i32, align 4
  %9 = alloca i32, align 4
  %10 = alloca i32, align 4
  %11 = alloca i32, align 4
  store ptr %0, ptr %3, align 8
  %12 = zext i1 %1 to i8
  store i8 %12, ptr %4, align 1
  %13 = load ptr, ptr %3, align 8
  %14 = getelementptr inbounds nuw %"class.o3dgc::Adaptive_Data_Model", ptr %13, i32 0, i32 4
  %15 = load i32, ptr %14, align 4
  %16 = getelementptr inbounds nuw %"class.o3dgc::Adaptive_Data_Model", ptr %13, i32 0, i32 3
  %17 = load i32, ptr %16, align 8
  %18 = add i32 %17, %15
  store i32 %18, ptr %16, align 8
  %19 = icmp ugt i32 %18, 32768
  br i1 %19, label %20, label %49

20:                                               ; preds = %2
  %21 = getelementptr inbounds nuw %"class.o3dgc::Adaptive_Data_Model", ptr %13, i32 0, i32 3
  store i32 0, ptr %21, align 8
  call void @llvm.lifetime.start.p0(i64 4, ptr %5) #12
  store i32 0, ptr %5, align 4
  br label %22

22:                                               ; preds = %45, %20
  %23 = load i32, ptr %5, align 4
  %24 = getelementptr inbounds nuw %"class.o3dgc::Adaptive_Data_Model", ptr %13, i32 0, i32 6
  %25 = load i32, ptr %24, align 4
  %26 = icmp ult i32 %23, %25
  br i1 %26, label %28, label %27

27:                                               ; preds = %22
  call void @llvm.lifetime.end.p0(i64 4, ptr %5) #12
  br label %48

28:                                               ; preds = %22
  %29 = getelementptr inbounds nuw %"class.o3dgc::Adaptive_Data_Model", ptr %13, i32 0, i32 1
  %30 = load ptr, ptr %29, align 8
  %31 = load i32, ptr %5, align 4
  %32 = zext i32 %31 to i64
  %33 = getelementptr inbounds nuw i32, ptr %30, i64 %32
  %34 = load i32, ptr %33, align 4
  %35 = add i32 %34, 1
  %36 = lshr i32 %35, 1
  %37 = getelementptr inbounds nuw %"class.o3dgc::Adaptive_Data_Model", ptr %13, i32 0, i32 1
  %38 = load ptr, ptr %37, align 8
  %39 = load i32, ptr %5, align 4
  %40 = zext i32 %39 to i64
  %41 = getelementptr inbounds nuw i32, ptr %38, i64 %40
  store i32 %36, ptr %41, align 4
  %42 = getelementptr inbounds nuw %"class.o3dgc::Adaptive_Data_Model", ptr %13, i32 0, i32 3
  %43 = load i32, ptr %42, align 8
  %44 = add i32 %43, %36
  store i32 %44, ptr %42, align 8
  br label %45

45:                                               ; preds = %28
  %46 = load i32, ptr %5, align 4
  %47 = add i32 %46, 1
  store i32 %47, ptr %5, align 4
  br label %22, !llvm.loop !9

48:                                               ; preds = %27
  br label %49

49:                                               ; preds = %48, %2
  call void @llvm.lifetime.start.p0(i64 4, ptr %6) #12
  call void @llvm.lifetime.start.p0(i64 4, ptr %7) #12
  store i32 0, ptr %7, align 4
  call void @llvm.lifetime.start.p0(i64 4, ptr %8) #12
  store i32 0, ptr %8, align 4
  call void @llvm.lifetime.start.p0(i64 4, ptr %9) #12
  %50 = getelementptr inbounds nuw %"class.o3dgc::Adaptive_Data_Model", ptr %13, i32 0, i32 3
  %51 = load i32, ptr %50, align 8
  %52 = udiv i32 -2147483648, %51
  store i32 %52, ptr %9, align 4
  %53 = load i8, ptr %4, align 1, !range !10, !noundef !11
  %54 = trunc i8 %53 to i1
  br i1 %54, label %59, label %55

55:                                               ; preds = %49
  %56 = getelementptr inbounds nuw %"class.o3dgc::Adaptive_Data_Model", ptr %13, i32 0, i32 8
  %57 = load i32, ptr %56, align 4
  %58 = icmp eq i32 %57, 0
  br i1 %58, label %59, label %87

59:                                               ; preds = %55, %49
  store i32 0, ptr %6, align 4
  br label %60

60:                                               ; preds = %83, %59
  %61 = load i32, ptr %6, align 4
  %62 = getelementptr inbounds nuw %"class.o3dgc::Adaptive_Data_Model", ptr %13, i32 0, i32 6
  %63 = load i32, ptr %62, align 4
  %64 = icmp ult i32 %61, %63
  br i1 %64, label %65, label %86

65:                                               ; preds = %60
  %66 = load i32, ptr %9, align 4
  %67 = load i32, ptr %7, align 4
  %68 = mul i32 %66, %67
  %69 = lshr i32 %68, 16
  %70 = getelementptr inbounds nuw %"class.o3dgc::Adaptive_Data_Model", ptr %13, i32 0, i32 0
  %71 = load ptr, ptr %70, align 8
  %72 = load i32, ptr %6, align 4
  %73 = zext i32 %72 to i64
  %74 = getelementptr inbounds nuw i32, ptr %71, i64 %73
  store i32 %69, ptr %74, align 4
  %75 = getelementptr inbounds nuw %"class.o3dgc::Adaptive_Data_Model", ptr %13, i32 0, i32 1
  %76 = load ptr, ptr %75, align 8
  %77 = load i32, ptr %6, align 4
  %78 = zext i32 %77 to i64
  %79 = getelementptr inbounds nuw i32, ptr %76, i64 %78
  %80 = load i32, ptr %79, align 4
  %81 = load i32, ptr %7, align 4
  %82 = add i32 %81, %80
  store i32 %82, ptr %7, align 4
  br label %83

83:                                               ; preds = %65
  %84 = load i32, ptr %6, align 4
  %85 = add i32 %84, 1
  store i32 %85, ptr %6, align 4
  br label %60, !llvm.loop !12

86:                                               ; preds = %60
  br label %157

87:                                               ; preds = %55
  store i32 0, ptr %6, align 4
  br label %88

88:                                               ; preds = %134, %87
  %89 = load i32, ptr %6, align 4
  %90 = getelementptr inbounds nuw %"class.o3dgc::Adaptive_Data_Model", ptr %13, i32 0, i32 6
  %91 = load i32, ptr %90, align 4
  %92 = icmp ult i32 %89, %91
  br i1 %92, label %93, label %137

93:                                               ; preds = %88
  %94 = load i32, ptr %9, align 4
  %95 = load i32, ptr %7, align 4
  %96 = mul i32 %94, %95
  %97 = lshr i32 %96, 16
  %98 = getelementptr inbounds nuw %"class.o3dgc::Adaptive_Data_Model", ptr %13, i32 0, i32 0
  %99 = load ptr, ptr %98, align 8
  %100 = load i32, ptr %6, align 4
  %101 = zext i32 %100 to i64
  %102 = getelementptr inbounds nuw i32, ptr %99, i64 %101
  store i32 %97, ptr %102, align 4
  %103 = getelementptr inbounds nuw %"class.o3dgc::Adaptive_Data_Model", ptr %13, i32 0, i32 1
  %104 = load ptr, ptr %103, align 8
  %105 = load i32, ptr %6, align 4
  %106 = zext i32 %105 to i64
  %107 = getelementptr inbounds nuw i32, ptr %104, i64 %106
  %108 = load i32, ptr %107, align 4
  %109 = load i32, ptr %7, align 4
  %110 = add i32 %109, %108
  store i32 %110, ptr %7, align 4
  call void @llvm.lifetime.start.p0(i64 4, ptr %10) #12
  %111 = getelementptr inbounds nuw %"class.o3dgc::Adaptive_Data_Model", ptr %13, i32 0, i32 0
  %112 = load ptr, ptr %111, align 8
  %113 = load i32, ptr %6, align 4
  %114 = zext i32 %113 to i64
  %115 = getelementptr inbounds nuw i32, ptr %112, i64 %114
  %116 = load i32, ptr %115, align 4
  %117 = getelementptr inbounds nuw %"class.o3dgc::Adaptive_Data_Model", ptr %13, i32 0, i32 9
  %118 = load i32, ptr %117, align 8
  %119 = lshr i32 %116, %118
  store i32 %119, ptr %10, align 4
  br label %120

120:                                              ; preds = %124, %93
  %121 = load i32, ptr %8, align 4
  %122 = load i32, ptr %10, align 4
  %123 = icmp ult i32 %121, %122
  br i1 %123, label %124, label %133

124:                                              ; preds = %120
  %125 = load i32, ptr %6, align 4
  %126 = sub i32 %125, 1
  %127 = getelementptr inbounds nuw %"class.o3dgc::Adaptive_Data_Model", ptr %13, i32 0, i32 2
  %128 = load ptr, ptr %127, align 8
  %129 = load i32, ptr %8, align 4
  %130 = add i32 %129, 1
  store i32 %130, ptr %8, align 4
  %131 = zext i32 %130 to i64
  %132 = getelementptr inbounds nuw i32, ptr %128, i64 %131
  store i32 %126, ptr %132, align 4
  br label %120, !llvm.loop !13

133:                                              ; preds = %120
  call void @llvm.lifetime.end.p0(i64 4, ptr %10) #12
  br label %134

134:                                              ; preds = %133
  %135 = load i32, ptr %6, align 4
  %136 = add i32 %135, 1
  store i32 %136, ptr %6, align 4
  br label %88, !llvm.loop !14

137:                                              ; preds = %88
  %138 = getelementptr inbounds nuw %"class.o3dgc::Adaptive_Data_Model", ptr %13, i32 0, i32 2
  %139 = load ptr, ptr %138, align 8
  %140 = getelementptr inbounds i32, ptr %139, i64 0
  store i32 0, ptr %140, align 4
  br label %141

141:                                              ; preds = %146, %137
  %142 = load i32, ptr %8, align 4
  %143 = getelementptr inbounds nuw %"class.o3dgc::Adaptive_Data_Model", ptr %13, i32 0, i32 8
  %144 = load i32, ptr %143, align 4
  %145 = icmp ule i32 %142, %144
  br i1 %145, label %146, label %156

146:                                              ; preds = %141
  %147 = getelementptr inbounds nuw %"class.o3dgc::Adaptive_Data_Model", ptr %13, i32 0, i32 6
  %148 = load i32, ptr %147, align 4
  %149 = sub i32 %148, 1
  %150 = getelementptr inbounds nuw %"class.o3dgc::Adaptive_Data_Model", ptr %13, i32 0, i32 2
  %151 = load ptr, ptr %150, align 8
  %152 = load i32, ptr %8, align 4
  %153 = add i32 %152, 1
  store i32 %153, ptr %8, align 4
  %154 = zext i32 %153 to i64
  %155 = getelementptr inbounds nuw i32, ptr %151, i64 %154
  store i32 %149, ptr %155, align 4
  br label %141, !llvm.loop !15

156:                                              ; preds = %141
  br label %157

157:                                              ; preds = %156, %86
  %158 = getelementptr inbounds nuw %"class.o3dgc::Adaptive_Data_Model", ptr %13, i32 0, i32 4
  %159 = load i32, ptr %158, align 4
  %160 = mul i32 5, %159
  %161 = lshr i32 %160, 2
  %162 = getelementptr inbounds nuw %"class.o3dgc::Adaptive_Data_Model", ptr %13, i32 0, i32 4
  store i32 %161, ptr %162, align 4
  call void @llvm.lifetime.start.p0(i64 4, ptr %11) #12
  %163 = getelementptr inbounds nuw %"class.o3dgc::Adaptive_Data_Model", ptr %13, i32 0, i32 6
  %164 = load i32, ptr %163, align 4
  %165 = add i32 %164, 6
  %166 = shl i32 %165, 3
  store i32 %166, ptr %11, align 4
  %167 = getelementptr inbounds nuw %"class.o3dgc::Adaptive_Data_Model", ptr %13, i32 0, i32 4
  %168 = load i32, ptr %167, align 4
  %169 = load i32, ptr %11, align 4
  %170 = icmp ugt i32 %168, %169
  br i1 %170, label %171, label %174

171:                                              ; preds = %157
  %172 = load i32, ptr %11, align 4
  %173 = getelementptr inbounds nuw %"class.o3dgc::Adaptive_Data_Model", ptr %13, i32 0, i32 4
  store i32 %172, ptr %173, align 4
  br label %174

174:                                              ; preds = %171, %157
  %175 = getelementptr inbounds nuw %"class.o3dgc::Adaptive_Data_Model", ptr %13, i32 0, i32 4
  %176 = load i32, ptr %175, align 4
  %177 = getelementptr inbounds nuw %"class.o3dgc::Adaptive_Data_Model", ptr %13, i32 0, i32 5
  store i32 %176, ptr %177, align 8
  call void @llvm.lifetime.end.p0(i64 4, ptr %11) #12
  call void @llvm.lifetime.end.p0(i64 4, ptr %9) #12
  call void @llvm.lifetime.end.p0(i64 4, ptr %8) #12
  call void @llvm.lifetime.end.p0(i64 4, ptr %7) #12
  call void @llvm.lifetime.end.p0(i64 4, ptr %6) #12
  ret void
}