; Function Attrs: mustprogress nofree norecurse nosync nounwind memory(readwrite, inaccessiblemem: write) uwtable
define hidden void @_ZN5o3dgc19Adaptive_Data_Model6updateEb(ptr noundef nonnull align 8 captures(none) dereferenceable(52) %0, i1 noundef zeroext %1) local_unnamed_addr #3 align 2 {
  %3 = getelementptr inbounds nuw i8, ptr %0, i64 28
  %4 = load i32, ptr %3, align 4
  %5 = getelementptr inbounds nuw i8, ptr %0, i64 24
  %6 = load i32, ptr %5, align 8
  %7 = add i32 %6, %4
  store i32 %7, ptr %5, align 8
  %8 = icmp ugt i32 %7, 32768
  br i1 %8, label %.lr.ph, label %.loopexit35

.lr.ph:                                           ; preds = %2
  store i32 0, ptr %5, align 8
  %9 = getelementptr inbounds nuw i8, ptr %0, i64 36
  %10 = load i32, ptr %9, align 4
  %.not53 = icmp ne i32 %10, 0
  tail call void @llvm.assume(i1 %.not53)
  %11 = getelementptr inbounds nuw i8, ptr %0, i64 8
  br label %12

12:                                               ; preds = %.lr.ph, %12
  %indvars.iv = phi i64 [ 0, %.lr.ph ], [ %indvars.iv.next, %12 ]
  %13 = load ptr, ptr %11, align 8
  %14 = getelementptr inbounds nuw i32, ptr %13, i64 %indvars.iv
  %15 = load i32, ptr %14, align 4
  %16 = add i32 %15, 1
  %17 = lshr i32 %16, 1
  store i32 %17, ptr %14, align 4
  %18 = load i32, ptr %5, align 8
  %19 = add i32 %18, %17
  store i32 %19, ptr %5, align 8
  %indvars.iv.next = add nuw nsw i64 %indvars.iv, 1
  %20 = load i32, ptr %9, align 4
  %21 = zext i32 %20 to i64
  %22 = icmp samesign ult i64 %indvars.iv.next, %21
  br i1 %22, label %12, label %.loopexit35, !llvm.loop !9

.loopexit35:                                      ; preds = %12, %2
  %23 = phi i32 [ %7, %2 ], [ %19, %12 ]
  %24 = udiv i32 -2147483648, %23
  br i1 %1, label %36, label %25

25:                                               ; preds = %.loopexit35
  %26 = getelementptr inbounds nuw i8, ptr %0, i64 44
  %27 = load i32, ptr %26, align 4
  %28 = icmp eq i32 %27, 0
  br i1 %28, label %36, label %.preheader

.preheader:                                       ; preds = %25
  %29 = getelementptr inbounds nuw i8, ptr %0, i64 36
  %30 = load i32, ptr %29, align 4
  %.not54 = icmp eq i32 %30, 0
  br i1 %.not54, label %._crit_edge43.thread, label %.lr.ph42

._crit_edge43.thread:                             ; preds = %.preheader
  %31 = getelementptr inbounds nuw i8, ptr %0, i64 16
  %32 = load ptr, ptr %31, align 8
  store i32 0, ptr %32, align 4
  br label %.lr.ph48.preheader

.lr.ph42:                                         ; preds = %.preheader
  %33 = getelementptr inbounds nuw i8, ptr %0, i64 8
  %34 = getelementptr inbounds nuw i8, ptr %0, i64 48
  %35 = getelementptr inbounds nuw i8, ptr %0, i64 16
  br label %52

36:                                               ; preds = %25, %.loopexit35
  %37 = getelementptr inbounds nuw i8, ptr %0, i64 36
  %38 = load i32, ptr %37, align 4
  %.not55 = icmp eq i32 %38, 0
  br i1 %.not55, label %.loopexit, label %.lr.ph52

.lr.ph52:                                         ; preds = %36
  %39 = getelementptr inbounds nuw i8, ptr %0, i64 8
  br label %40

40:                                               ; preds = %.lr.ph52, %40
  %indvars.iv64 = phi i64 [ 0, %.lr.ph52 ], [ %indvars.iv.next65, %40 ]
  %.02949 = phi i32 [ 0, %.lr.ph52 ], [ %48, %40 ]
  %41 = mul i32 %.02949, %24
  %42 = lshr i32 %41, 16
  %43 = load ptr, ptr %0, align 8
  %44 = getelementptr inbounds nuw i32, ptr %43, i64 %indvars.iv64
  store i32 %42, ptr %44, align 4
  %45 = load ptr, ptr %39, align 8
  %46 = getelementptr inbounds nuw i32, ptr %45, i64 %indvars.iv64
  %47 = load i32, ptr %46, align 4
  %48 = add i32 %47, %.02949
  %indvars.iv.next65 = add nuw nsw i64 %indvars.iv64, 1
  %49 = load i32, ptr %37, align 4
  %50 = zext i32 %49 to i64
  %51 = icmp samesign ult i64 %indvars.iv.next65, %50
  br i1 %51, label %40, label %.loopexit, !llvm.loop !10

52:                                               ; preds = %.lr.ph42, %._crit_edge
  %indvars.iv61 = phi i64 [ 0, %.lr.ph42 ], [ %indvars.iv.next62, %._crit_edge ]
  %.13040 = phi i32 [ 0, %.lr.ph42 ], [ %60, %._crit_edge ]
  %.03139 = phi i32 [ 0, %.lr.ph42 ], [ %.132.lcssa, %._crit_edge ]
  %53 = mul i32 %.13040, %24
  %54 = lshr i32 %53, 16
  %55 = load ptr, ptr %0, align 8
  %56 = getelementptr inbounds nuw i32, ptr %55, i64 %indvars.iv61
  store i32 %54, ptr %56, align 4
  %57 = load ptr, ptr %33, align 8
  %58 = getelementptr inbounds nuw i32, ptr %57, i64 %indvars.iv61
  %59 = load i32, ptr %58, align 4
  %60 = add i32 %59, %.13040
  %61 = load ptr, ptr %0, align 8
  %62 = getelementptr inbounds nuw i32, ptr %61, i64 %indvars.iv61
  %63 = load i32, ptr %62, align 4
  %64 = load i32, ptr %34, align 8
  %65 = lshr i32 %63, %64
  %66 = icmp ult i32 %.03139, %65
  br i1 %66, label %.lr.ph38, label %._crit_edge

.lr.ph38:                                         ; preds = %52
  %67 = trunc nuw i64 %indvars.iv61 to i32
  %68 = add i32 %67, -1
  %69 = zext i32 %.03139 to i64
  %wide.trip.count = zext i32 %65 to i64
  br label %70

70:                                               ; preds = %.lr.ph38, %70
  %indvars.iv58 = phi i64 [ %69, %.lr.ph38 ], [ %indvars.iv.next59, %70 ]
  %71 = load ptr, ptr %35, align 8
  %indvars.iv.next59 = add nuw nsw i64 %indvars.iv58, 1
  %72 = getelementptr inbounds nuw i32, ptr %71, i64 %indvars.iv.next59
  store i32 %68, ptr %72, align 4
  %exitcond.not = icmp eq i64 %indvars.iv.next59, %wide.trip.count
  br i1 %exitcond.not, label %._crit_edge, label %70, !llvm.loop !11

._crit_edge:                                      ; preds = %70, %52
  %.132.lcssa = phi i32 [ %.03139, %52 ], [ %65, %70 ]
  %indvars.iv.next62 = add nuw nsw i64 %indvars.iv61, 1
  %73 = load i32, ptr %29, align 4
  %74 = zext i32 %73 to i64
  %75 = icmp samesign ult i64 %indvars.iv.next62, %74
  br i1 %75, label %52, label %._crit_edge43, !llvm.loop !12

._crit_edge43:                                    ; preds = %._crit_edge
  %76 = getelementptr inbounds nuw i8, ptr %0, i64 16
  %77 = load ptr, ptr %76, align 8
  store i32 0, ptr %77, align 4
  %78 = load i32, ptr %26, align 4
  %.not45 = icmp ugt i32 %.132.lcssa, %78
  br i1 %.not45, label %.loopexit, label %.lr.ph48.preheader

.lr.ph48.preheader:                               ; preds = %._crit_edge43.thread, %._crit_edge43
  %79 = phi ptr [ %31, %._crit_edge43.thread ], [ %76, %._crit_edge43 ]
  %.031.lcssa69 = phi i32 [ 0, %._crit_edge43.thread ], [ %.132.lcssa, %._crit_edge43 ]
  br label %.lr.ph48

.lr.ph48:                                         ; preds = %.lr.ph48.preheader, %.lr.ph48
  %.246 = phi i32 [ %83, %.lr.ph48 ], [ %.031.lcssa69, %.lr.ph48.preheader ]
  %80 = load i32, ptr %29, align 4
  %81 = add i32 %80, -1
  %82 = load ptr, ptr %79, align 8
  %83 = add i32 %.246, 1
  %84 = zext i32 %83 to i64
  %85 = getelementptr inbounds nuw i32, ptr %82, i64 %84
  store i32 %81, ptr %85, align 4
  %86 = load i32, ptr %26, align 4
  %.not = icmp ugt i32 %83, %86
  br i1 %.not, label %.loopexit, label %.lr.ph48, !llvm.loop !13

.loopexit:                                        ; preds = %.lr.ph48, %40, %._crit_edge43, %36
  %87 = load i32, ptr %3, align 4
  %88 = mul i32 %87, 5
  %89 = lshr i32 %88, 2
  %90 = getelementptr inbounds nuw i8, ptr %0, i64 36
  %91 = load i32, ptr %90, align 4
  %92 = shl i32 %91, 3
  %93 = add i32 %92, 48
  %spec.store.select = tail call i32 @llvm.umin.i32(i32 %89, i32 %93)
  store i32 %spec.store.select, ptr %3, align 4
  %94 = getelementptr inbounds nuw i8, ptr %0, i64 32
  store i32 %spec.store.select, ptr %94, align 8
  ret void
}